; Function Attrs: mustprogress uwtable
define void @_ZN3gmx28AnalysisDataVectorPlotModuleC2ERKNS_24AnalysisDataPlotSettingsE(ptr noundef nonnull writeonly align 8 captures(none) dereferenceable(20) initializes((0, 8)) %0, ptr noundef nonnull align 8 dereferenceable(16) %1) unnamed_addr #2 align 2 personality ptr @__gxx_personality_v0 {
  store ptr getelementptr inbounds nuw inrange(-16, 80) (i8, ptr @_ZTVN3gmx18AbstractPlotModuleE, i64 16), ptr %0, align 8, !tbaa !47
  %3 = tail call noalias noundef nonnull dereferenceable(288) ptr @_Znwm(i64 noundef 288) #38
  invoke void @_ZN3gmx18AbstractPlotModule4ImplC1ERKNS_24AnalysisDataPlotSettingsE(ptr noundef nonnull align 8 dereferenceable(284) %3, ptr noundef nonnull align 8 dereferenceable(16) %1)
          to label %_ZN3gmx18AbstractPlotModuleC2ERKNS_24AnalysisDataPlotSettingsE.exit unwind label %4

4:                                                ; preds = %2
  %5 = landingpad { ptr, i32 }
          cleanup
  tail call void @_ZdlPvm(ptr noundef nonnull %3, i64 noundef 288) #36
  resume { ptr, i32 } %5

_ZN3gmx18AbstractPlotModuleC2ERKNS_24AnalysisDataPlotSettingsE.exit: ; preds = %2
  %6 = getelementptr inbounds nuw i8, ptr %0, i64 8
  store ptr %3, ptr %6, align 8, !tbaa !4
  store ptr getelementptr inbounds nuw inrange(-16, 80) (i8, ptr @_ZTVN3gmx28AnalysisDataVectorPlotModuleE, i64 16), ptr %0, align 8, !tbaa !47
  %7 = getelementptr inbounds nuw i8, ptr %0, i64 16
  store i8 1, ptr %7, align 8, !tbaa !61
  %8 = getelementptr inbounds nuw i8, ptr %0, i64 17
  store i8 1, ptr %8, align 1, !tbaa !61
  %9 = getelementptr inbounds nuw i8, ptr %0, i64 18
  store i8 1, ptr %9, align 2, !tbaa !61
  %10 = getelementptr inbounds nuw i8, ptr %0, i64 19
  store i8 0, ptr %10, align 1, !tbaa !61
  ret void
}